(dp0
S'files'
p1
(S'WiFi_car/scr/Buttons.py'
p2
S'WiFi_car/scr/c_connect.py'
p3
S'WiFi_car/scr/func.py'
p4
tp5
sS'name'
p6
S'joy'
p7
sS'author'
p8
S'krdr'
p9
sS'script'
p10
S'WiFi_car/scr/main.py'
p11
sS'displaymode'
p12
S'windows'
p13
sS'version'
p14
S'3'
p15
sS'data'
p16
(S'WiFi_car/scr/background2.png=WiFi_car/scr/background2.png'
p17
tp18
sS'icon'
p19
S'C:/Python27/DLLs/py.ico'
p20
s.